target datalayout = "e-m:e-p270:32:32-p271:32:32-p272:64:64-i64:64-i128:128-f80:128-n8:16:32:64-S128"
target triple = "x86_64-unknown-linux-gnu"

%struct.QemuMutex = type { %union.pthread_mutex_t, i8 }
%union.pthread_mutex_t = type { %struct.__pthread_mutex_s }
%struct.__pthread_mutex_s = type { i32, i32, i32, i32, i32, i16, i16, %struct.__pthread_internal_list }
%struct.__pthread_internal_list = type { ptr, ptr }
%struct.MigrationIncomingState = type { ptr, [2 x ptr], ptr, ptr, %struct.QemuSemaphore, %struct.QemuEvent, %struct.AnnounceTimer, i64, i8, %struct.QemuThread, i8, i8, %struct.QemuThread, i32, i32, ptr, %struct.QemuMutex, ptr, i32, ptr, %struct.QemuSemaphore, %struct.QemuThread, i32, %struct.QemuMutex, ptr, ptr, ptr, ptr, i32, ptr, ptr, %struct.QemuSemaphore, ptr, %struct.QemuSemaphore, %struct.QemuSemaphore, %struct.QemuSemaphore, ptr, ptr, i32, %struct.QemuMutex, %struct.QemuCond, i32 }
%struct.QemuEvent = type { i32, i8 }
%struct.AnnounceTimer = type { ptr, %struct.AnnounceParameters, i32, i32 }
%struct.AnnounceParameters = type { i64, i64, i64, i64, i8, ptr, ptr }
%struct.QemuThread = type { i64 }
%struct.QemuSemaphore = type { %struct.QemuMutex, %struct.QemuCond, i32 }
%struct.QemuCond = type { %union.pthread_cond_t, i8 }
%union.pthread_cond_t = type { %struct.__pthread_cond_s }
%struct.__pthread_cond_s = type { %union.__atomic_wide_counter, %union.__atomic_wide_counter, [2 x i32], [2 x i32], i32, i32, [2 x i32] }
%union.__atomic_wide_counter = type { i64 }

; Function Attrs: nounwind sspstrong uwtable
define dso_local void @postcopy_register_shared_ufd(ptr noundef %pcfd) #0 {
entry:
  %pcfd.addr = alloca ptr, align 8
  %mis = alloca ptr, align 8
  store ptr %pcfd, ptr %pcfd.addr, align 8
  %call = call ptr @migration_incoming_get_current()
  store ptr %call, ptr %mis, align 8
  %0 = load ptr, ptr %mis, align 8
  %postcopy_remote_fds = getelementptr inbounds %struct.MigrationIncomingState, ptr %0, i32 0, i32 26
  %1 = load ptr, ptr %postcopy_remote_fds, align 8
  %2 = load ptr, ptr %pcfd.addr, align 8
  %call1 = call ptr @g_array_append_vals(ptr noundef %1, ptr noundef %2, i32 noundef 1)
  %3 = load ptr, ptr %mis, align 8
  %postcopy_remote_fds2 = getelementptr inbounds %struct.MigrationIncomingState, ptr %3, i32 0, i32 26
  store ptr %call1, ptr %postcopy_remote_fds2, align 8
  ret void
}