; Function Attrs: nounwind sspstrong uwtable
define dso_local void @postcopy_register_shared_ufd(ptr noundef %pcfd) local_unnamed_addr #0 {
entry:
  %call = tail call ptr @migration_incoming_get_current() #16
  %postcopy_remote_fds = getelementptr inbounds nuw i8, ptr %call, i64 552
  %0 = load ptr, ptr %postcopy_remote_fds, align 8
  %call1 = tail call ptr @g_array_append_vals(ptr noundef %0, ptr noundef %pcfd, i32 noundef 1) #16
  store ptr %call1, ptr %postcopy_remote_fds, align 8
  ret void
}